(lp0
(dp1
S'TO_right'
p2
(lp3
F670.0
aF316.0
aF288.0
asS'FROM_left'
p4
(lp5
F21022.25
aF16520.5
aF769.0
asS'TO_left'
p6
(lp7
F277.0
aF309.0
aF288.0
asS'name'
p8
S'BAla12'
p9
sS'FROM_right'
p10
(lp11
F7403.0
aF15911.0
aF764.0
asa(dp12
g2
(lp13
F666.0
aF317.0
aF291.0
asg4
(lp14
F20444.526319999997
aF17303.81579
aF771.0
asg6
(lp15
F284.0
aF322.0
aF281.0
asg8
S'BAla34'
p16
sg10
(lp17
F7964.8947370000005
aF16322.631580000001
aF785.0
asa(dp18
g2
(lp19
F678.0
aF296.0
aF280.0
asg4
(lp20
F21627.88
aF16318.38
aF736.5
asg6
(lp21
F271.0
aF277.0
aF276.0
asg8
S'BAlc'
p22
sg10
(lp23
F6411.75
aF15706.0
aF717.0
asa(dp24
g2
(lp25
F656.0
aF337.0
aF263.0
asg4
(lp26
F21250.5
aF16306.5
aF886.0
asg6
(lp27
F308.0
aF341.0
aF258.0
asg8
S'BAlp4'
p28
sg10
(lp29
F7136.868420999999
aF15296.81579
aF882.0
asa(dp30
g2
(lp31
F603.0
aF282.0
aF296.0
asg4
(lp32
F19166.0
aF17349.0
aF544.0
asg6
(lp33
F354.0
aF282.0
aF294.0
asg8
S'BAmas12'
p34
sg10
(lp35
F7992.789473999999
aF17433.973680000003
aF488.0
asa(dp36
g2
(lp37
F642.0
aF232.0
aF274.0
asg4
(lp38
F19586.57895
aF11853.34211
aF623.0
asg6
(lp39
F333.0
aF218.0
aF270.0
asg8
S'BAmd1-v'
p40
sg10
(lp41
F8846.0
aF11226.0
aF526.0
asa(dp42
g2
(lp43
F652.0
aF148.0
aF274.0
asg4
(lp44
F20179.36842
aF10186.52632
aF588.0
asg6
(lp45
F337.0
aF146.0
aF273.0
asg8
S'BAmd1-d'
p46
sg10
(lp47
F8064.0
aF9052.0
aF393.0
asa(dp48
g2
(lp49
F604.0
aF237.0
aF274.0
asg4
(lp50
F18546.0
aF11611.0
aF594.0
asg6
(lp51
F378.0
aF239.0
aF269.0
asg8
S'BAmd2'
p52
sg10
(lp53
F9308.0
aF10660.0
aF427.0
asa(dp54
g2
(lp55
F611.0
aF267.0
aF283.0
asg4
(lp56
F18575.42
aF14233.08
aF743.5
asg6
(lp57
F351.0
aF273.0
aF278.0
asg8
S'BAmv12'
p58
sg10
(lp59
F9158.882
aF13760.64
aF689.0
asa(dp60
g2
(lp61
F658.0
aF238.0
aF290.0
asg4
(lp62
F20504.0
aF14203.0
aF597.0
asg6
(lp63
F300.0
aF234.0
aF286.0
asg8
S'BAmv3'
p64
sg10
(lp65
F7733.0
aF14018.0
aF577.0
asa(dp66
g2
(lp67
F720.0
aF181.0
aF268.0
asg4
(lp68
F21650.0
aF10582.0
aF731.0
asg6
(lp69
F276.0
aF182.0
aF263.0
asg8
S'DALcl12-v'
p70
sg10
(lp71
F6826.0
aF9914.0
aF597.0
asa(dp72
g2
(lp73
F673.0
aF133.0
aF270.0
asg4
(lp74
F21195.0
aF8987.0
aF602.0
asg6
(lp75
F321.0
aF129.0
aF268.0
asg8
S'DALcm12-m'
p76
sg10
(lp77
F7540.0
aF8844.0
aF408.0
asa(dp78
g2
(lp79
F698.0
aF131.0
aF258.0
asg4
(lp80
F21796.28947
aF8788.131579
aF724.0
asg6
(lp81
F292.0
aF128.0
aF256.0
asg8
S'DALcm12-v'
p82
sg10
(lp83
F6852.0
aF8372.0
aF494.0
asa(dp84
g2
(lp85
F708.0
aF144.0
aF251.0
asg4
(lp86
F22084.81579
aF8732.184211
aF728.0
asg6
(lp87
F280.0
aF135.0
aF249.0
asg8
S'DALd'
p88
sg10
(lp89
F6732.0
aF8232.0
aF541.0
asa(dp90
g2
(lp91
F713.0
aF220.0
aF269.0
asg4
(lp92
F22806.0
aF13365.5
aF776.0
asg6
(lp93
F251.0
aF206.0
aF266.0
asg8
S'DALv23'
p94
sg10
(lp95
F6119.0
aF12818.0
aF681.0
asa(dp96
g2
(lp97
F726.0
aF215.0
aF256.0
asg4
(lp98
F22040.0
aF11087.5
aF842.0
asg6
(lp99
F248.0
aF203.0
aF253.0
asg8
S'DALv1'
p100
sg10
(lp101
F5985.0
aF10194.0
aF706.0
asa(dp102
g2
(lp103
F779.0
aF173.0
aF223.0
asg4
(lp104
F24223.0
aF8785.0
aF958.0
asg6
(lp105
F206.0
aF152.0
aF227.0
asg8
S'DPLal'
p106
sg10
(lp107
F4196.166666
aF8153.0
aF818.0
asa(dp108
g2
(lp109
F750.0
aF131.0
aF226.0
asg4
(lp110
F23105.657890000002
aF7512.5
aF918.0
asg6
(lp111
F237.0
aF119.0
aF226.0
asg8
S'DPLam'
p112
sg10
(lp113
F5252.0
aF7048.0
aF655.0
asa(dp114
g2
(lp115
F689.0
aF123.0
aF162.0
asg4
(lp116
F21162.0
aF5135.0
aF1114.0
asg6
(lp117
F298.0
aF124.0
aF162.0
asg8
S'DPLm1'
p118
sg10
(lp119
F6556.5
aF4257.657895
aF887.0
asa(dp120
g2
(lp121
F697.0
aF115.0
aF167.0
asg4
(lp122
F21629.0
aF5221.0
aF1113.0
asg6
(lp123
F293.0
aF109.0
aF167.0
asg8
S'DPLm2'
p124
sg10
(lp125
F6296.5
aF4296.0
aF855.0
asa(dp126
g2
(lp127
F718.6669999999999
aF101.333
aF228.0
asg4
(lp128
F22341.0
aF6816.0
aF832.0
asg6
(lp129
F273.33299999999997
aF98.667
aF227.0
asg8
S'DPLd'
p130
sg10
(lp131
F6271.0
aF6351.0
aF585.0
asa(dp132
g2
(lp133
F579.0
aF242.0
aF174.0
asg4
(lp134
F16607.0
aF7129.052631999999
aF998.0
asg6
(lp135
F414.0
aF238.0
aF180.0
asg8
S'DPMpm2'
p136
sg10
(lp137
F10200.5
aF5653.5
aF765.0
asa(dp138
g2
(lp139
F615.0
aF203.0
aF174.0
asg4
(lp140
F17217.73684
aF6883.421053
aF1009.0
asg6
(lp141
F376.0
aF203.0
aF178.0
asg8
S'DPMpl12'
p142
sg10
(lp143
F10172.0
aF5366.0
aF771.0
asa(dp144
g2
(lp145
F558.0
aF224.0
aF179.0
asg4
(lp146
F17183.342109999998
aF6943.631579000001
aF841.0
asg6
(lp147
F425.0
aF226.0
aF182.0
asg8
S'DPMpm1'
p148
sg10
(lp149
F10884.0
aF5818.0
aF666.0
asa(dp150
g2
(lp151
F558.0
aF190.0
aF183.0
asg4
(lp152
F17278.5
aF6722.5263159999995
aF614.0
asg6
(lp153
F437.0
aF192.0
aF193.0
asg8
S'DPMm1'
p154
sg10
(lp155
F11784.763159999999
aF5993.236842
aF479.0
asa(dp156
g2
(lp157
F595.0
aF167.0
aF191.0
asg4
(lp158
F17346.21053
aF6770.131579000001
aF891.0
asg6
(lp159
F402.0
aF163.0
aF192.0
asg8
S'DPMm2'
p160
sg10
(lp161
F10573.5
aF5593.5
aF749.0
asa(dp162
g2
(lp163
F749.0
aF272.0
aF150.0
asg4
(lp164
F22179.0
aF10832.0
aF1251.0
asg6
(lp165
F235.0
aF266.0
aF157.0
asg8
S'BLP12'
p166
sg10
(lp167
F5811.315789
aF9173.578947
aF1185.0
asa(dp168
g2
(lp169
F736.0
aF262.0
aF151.0
asg4
(lp170
F21180.76316
aF10808.236840000001
aF1243.0
asg6
(lp171
F249.0
aF242.0
aF156.0
asg8
S'BLP34'
p172
sg10
(lp173
F5427.0
aF9170.0
aF1270.0
asa(dp174
g2
(lp175
F694.0
aF308.0
aF169.0
asg4
(lp176
F20396.73684
aF10865.0
aF1205.0
asg6
(lp177
F287.33299999999997
aF305.33299999999997
aF174.0
asg8
S'BLVp1'
p178
sg10
(lp179
F7321.131579000001
aF9252.263158
aF1139.0
asa(dp180
g2
(lp181
F765.0
aF334.0
aF215.0
asg4
(lp182
F21899.0
aF10790.5
aF1260.0
asg6
(lp183
F198.0
aF311.0
aF217.0
asg8
S'BLVa12'
p184
sg10
(lp185
F5981.578947
aF9512.947368000001
aF1198.0
asa(dp186
g2
(lp187
F742.0
aF334.0
aF208.0
asg4
(lp188
F22863.947369999998
aF12740.763159999999
aF1222.0
asg6
(lp189
F226.0
aF334.0
aF211.0
asg8
S'BLVa34'
p190
sg10
(lp191
F5456.0
aF10208.5
aF1165.0
asa(dp192
g2
(lp193
F789.0
aF194.0
aF214.0
asg4
(lp194
F24410.81579
aF8775.710526
aF1065.0
asg6
(lp195
F197.0
aF174.0
aF212.0
asg8
S'BLAl'
p196
sg10
(lp197
F3862.5
aF8550.0
aF793.0
asa(dp198
g2
(lp199
F599.0
aF147.0
aF272.0
asg4
(lp200
F18134.92
aF9076.671
aF509.0
asg6
(lp201
F412.0
aF162.0
aF274.0
asg8
S'DAMv12'
p202
sg10
(lp203
F10483.0
aF8173.5
aF340.5
asa(dp204
g2
(lp205
F629.0
aF129.0
aF269.0
asg4
(lp206
F19227.973680000003
aF8043.3947370000005
aF508.0
asg6
(lp207
F358.0
aF134.0
aF272.0
asg8
S'DAMd23'
p208
sg10
(lp209
F8953.0
aF7869.0
aF341.0
asa(dp210
g2
(lp211
F580.0
aF128.0
aF266.0
asg4
(lp212
F18980.73684
aF8166.789473999999
aF505.0
asg6
(lp213
F410.0
aF132.0
aF268.0
asg8
S'DAMd1'
p214
sg10
(lp215
F9919.789474
aF6844.710526000001
aF320.0
asa(dp216
g2
(lp217
F671.0
aF265.0
aF167.0
asg4
(lp218
F19244.0
aF9118.0
aF1202.0
asg6
(lp219
F308.0
aF255.0
aF172.0
asg8
S'CPf'
p220
sg10
(lp221
F8252.0
aF7304.0
aF1071.0
asa(dp222
g2
(lp223
F697.0
aF273.0
aF162.0
asg4
(lp224
F20203.22
aF8707.916
aF1256.4
asg6
(lp225
F286.0
aF265.0
aF166.0
asg8
S'CP23v'
p226
sg10
(lp227
F7056.0
aF7284.405
aF1127.2
asa(dp228
g2
(lp229
F628.0
aF314.0
aF169.0
asg4
(lp230
F17256.25
aF8800.5
aF1146.0
asg6
(lp231
F345.0
aF302.0
aF173.0
asg8
S'CM13'
p232
sg10
(lp233
F10240.58
aF7595.789000000001
aF1047.0
asa(dp234
g2
(lp235
F603.0
aF282.0
aF166.0
asg4
(lp236
F16971.97
aF7997.395
aF1006.5
asg6
(lp237
F372.0
aF289.0
aF173.0
asg8
S'CM4'
p238
sg10
(lp239
F10836.37
aF6420.968000000001
aF876.0
asa(dp240
g2
(lp241
F789.0
aF195.0
aF204.0
asg4
(lp242
F23500.89474
aF8389.394737
aF1176.0
asg6
(lp243
F199.0
aF177.0
aF205.0
asg8
S'BLD23'
p244
sg10
(lp245
F4090.0
aF7342.0
aF996.0
asa(dp246
g2
(lp247
F670.0
aF374.0
aF244.0
asg4
(lp248
F21327.6
aF16022.6
aF915.0
asg6
(lp249
F280.0
aF354.0
aF247.0
asg8
S'BAlp23'
p250
sg10
(lp251
F7155.5
aF14254.0
aF927.0
asa(dp252
g2
(lp253
F740.0
aF152.0
aF159.0
asg4
(lp254
F22764.57895
aF6145.421053
aF1099.0
asg6
(lp255
F246.0
aF138.0
aF163.0
asg8
S'DPLl'
p256
sg10
(lp257
F4787.789474
aF5343.710526
aF989.0
asa(dp258
g2
(lp259
F719.0
aF241.0
aF150.0
asg4
(lp260
F22567.0
aF7153.0
aF1241.0
asg6
(lp261
F264.0
aF217.0
aF155.0
asg8
S'DPLp12'
p262
sg10
(lp263
F4900.236842
aF5830.736842
aF1060.0
asa(dp264
g2
(lp265
F790.0
aF188.0
aF217.0
asg4
(lp266
F24457.72
aF9880.697
aF1122.5
asg6
(lp267
F193.0
aF172.0
aF216.0
asg8
S'BLAd1234'
p268
sg10
(lp269
F3758.882
aF8540.0
aF917.0
asa(dp270
g2
(lp271
F678.0
aF91.0
aF234.0
asg4
(lp272
F21608.0
aF5572.0
aF752.0
asg6
(lp273
F321.0
aF85.0
aF234.0
asg8
S'MB Vertical Lobe Tip'
p274
sg10
(lp275
F7324.0
aF5573.0
aF463.0
asa(dp276
g2
(lp277
F689.0
aF176.0
aF251.0
asg4
(lp278
F20556.0
aF9023.0
aF715.0
asg6
(lp279
F295.0
aF169.0
aF251.0
asg8
S'MB Vertical-Medial Lobe Intersection'
p280
sg10
(lp281
F8158.0
aF8188.0
aF540.0
asa(dp282
g2
(lp283
F651.0
aF267.0
aF213.0
asg4
(lp284
F19332.5
aF10469.5
aF970.0
asg6
(lp285
F326.0
aF262.0
aF214.0
asg8
S'DALv1 Branch Point'
p286
sg10
(lp287
F8392.0
aF8992.0
aF886.0
asa(dp288
g2
(lp289
F595.0
aF279.0
aF279.0
asg4
(lp290
F18203.0
aF13908.5
aF674.0
asg6
(lp291
F369.0
aF282.0
aF275.0
asg8
S'BAmv12-BAmas12 Closest Point'
p292
sg10
(lp293
F9481.0
aF13663.0
aF640.0
asa(dp294
g2
(lp295
F597.0
aF362.0
aF253.0
asg4
(lp296
F18242.0
aF15044.0
aF919.0
asg6
(lp297
F369.0
aF360.0
aF252.0
asg8
S'BAmv12-BAla34 Closest Point'
p298
sg10
(lp299
F9552.0
aF13963.0
aF877.0
asa(dp300
g2
(lp301
F679.0
aF172.0
aF242.0
asg4
(lp302
F21253.0
aF9366.0
aF785.0
asg6
(lp303
F309.0
aF172.0
aF239.0
asg8
S'DALd/DALcl12 and MB Peduncle Closest Point'
p304
sg10
(lp305
F6936.0
aF8561.0
aF610.0
asa(dp306
g2
(lp307
F664.0
aF225.0
aF165.0
asg4
(lp308
F19132.0
aF7762.0
aF1183.0
asg6
(lp309
F328.0
aF215.0
aF165.0
asg8
S'CPa/bl/f and MB Peduncle Closest Point'
p310
sg10
(lp311
F8203.0
aF6317.0
aF1059.0
asa(dp312
g2
(lp313
F524.0
aF438.0
aF245.0
asg4
(lp314
F16771.0
aF16202.0
aF1091.0
asg6
(lp315
F440.0
aF437.0
aF245.0
asg8
S'TRc/DMT Tracts Crossing Point'
p316
sg10
(lp317
F11659.0
aF15182.0
aF1083.0
asa(dp318
S'FROM_centre'
p319
(lp320
F14948.0
aF7947.0
aF373.0
asS'TO_centre'
p321
(lp322
F495.667
aF176.0
aF250.0
asg8
S'Center of Commissure along DAMd1'
p323
sa(dp324
g319
(lp325
F13858.0
aF8381.0
aF562.0
asg321
(lp326
F493.0
aF257.0
aF239.0
asg8
S'Center of Commissure along DALv1'
p327
sa(dp328
g319
(lp329
F13894.0
aF9170.0
aF465.0
asg321
(lp330
F499.667
aF217.333
aF254.0
asg8
S'Center of Commissure along BAmd1'
p331
sa(dp332
g319
(lp333
F13957.0
aF8949.0
aF466.0
asg321
(lp334
F496.0
aF250.0
aF226.0
asg8
S'Center of Commissure along CM1d (CM13 in EM)'
p335
sa(dp336
g319
(lp337
F14708.0
aF8037.0
aF475.0
asg321
(lp338
F494.0
aF226.0
aF233.0
asg8
S'Center of Commissure between DPMpm2a/b'
p339
sa.